target datalayout = "e-m:e-p270:32:32-p271:32:32-p272:64:64-i64:64-i128:128-f80:128-n8:16:32:64-S128"
target triple = "x86_64-pc-linux-gnu"

; Function Attrs: mustprogress uwtable
define internal noundef i32 @_ZL12luaB_getfenvP9lua_State(ptr noundef %0) #0 {
  %2 = alloca ptr, align 8
  store ptr %0, ptr %2, align 8
  %3 = load ptr, ptr %2, align 8
  call void @_ZL7getfuncP9lua_Statei(ptr noundef %3, i32 noundef 1)
  %4 = load ptr, ptr %2, align 8
  %5 = call noundef i32 @_Z15lua_iscfunctionP9lua_Statei(ptr noundef %4, i32 noundef -1)
  %6 = icmp ne i32 %5, 0
  br i1 %6, label %7, label %9

7:                                                ; preds = %1
  %8 = load ptr, ptr %2, align 8
  call void @_Z13lua_pushvalueP9lua_Statei(ptr noundef %8, i32 noundef -10002)
  br label %11

9:                                                ; preds = %1
  %10 = load ptr, ptr %2, align 8
  call void @_Z11lua_getfenvP9lua_Statei(ptr noundef %10, i32 noundef -1)
  br label %11

11:                                               ; preds = %9, %7
  %12 = load ptr, ptr %2, align 8
  call void @_Z14lua_setsafeenvP9lua_Stateii(ptr noundef %12, i32 noundef -1, i32 noundef 0)
  ret i32 1
}