; Function Attrs: mustprogress uwtable
define internal noundef i32 @_ZL12luaB_getfenvP9lua_State(ptr noundef %0) #0 {
  tail call fastcc void @_ZL7getfuncP9lua_Statei(ptr noundef %0, i32 noundef 1)
  %2 = tail call noundef i32 @_Z15lua_iscfunctionP9lua_Statei(ptr noundef %0, i32 noundef -1)
  %.not = icmp eq i32 %2, 0
  br i1 %.not, label %4, label %3

3:                                                ; preds = %1
  tail call void @_Z13lua_pushvalueP9lua_Statei(ptr noundef %0, i32 noundef -10002)
  br label %5

4:                                                ; preds = %1
  tail call void @_Z11lua_getfenvP9lua_Statei(ptr noundef %0, i32 noundef -1)
  br label %5

5:                                                ; preds = %4, %3
  tail call void @_Z14lua_setsafeenvP9lua_Stateii(ptr noundef %0, i32 noundef -1, i32 noundef 0)
  ret i32 1
}